; ModuleID = '35/1928.c'
source_filename = "35/1928.c"
target datalayout = "e-m:e-p270:32:32-p271:32:32-p272:64:64-i64:64-f80:128-n8:16:32:64-S128"
target triple = "x86_64-pc-linux-gnu"

@.str = private unnamed_addr constant [6 x i8] c"%d,%d\00", align 1
@.str.1 = private unnamed_addr constant [3 x i8] c"%d\00", align 1
@.str.2 = private unnamed_addr constant [7 x i8] c"%d+%d\0A\00", align 1
@.str.3 = private unnamed_addr constant [4 x i8] c"No\0A\00", align 1

; Function Attrs: noinline nounwind uwtable
define dso_local void @main() #0 {
  %1 = alloca i32**, align 8
  %2 = alloca i32, align 4
  %3 = alloca i32, align 4
  %4 = alloca i32, align 4
  %5 = alloca i32, align 4
  %6 = alloca i32, align 4
  %7 = alloca i32, align 4
  %8 = alloca i32, align 4
  %9 = alloca i32, align 4
  %10 = alloca i32, align 4
  %11 = alloca i32, align 4
  store i32 0, i32* %11, align 4
  %12 = call i32 (i8*, ...) @__isoc99_scanf(i8* getelementptr inbounds ([6 x i8], [6 x i8]* @.str, i64 0, i64 0), i32* %9, i32* %10)
  %13 = load i32, i32* %9, align 4
  %14 = sext i32 %13 to i64
  %15 = mul i64 %14, 8
  %16 = call noalias i8* @malloc(i64 %15) #3
  %17 = bitcast i8* %16 to i32**
  store i32** %17, i32*** %1, align 8
  store i32 0, i32* %4, align 4
  br label %18

18:                                               ; preds = %50, %0
  %19 = load i32, i32* %4, align 4
  %20 = load i32, i32* %9, align 4
  %21 = icmp slt i32 %19, %20
  br i1 %21, label %22, label %53

22:                                               ; preds = %18
  %23 = load i32, i32* %10, align 4
  %24 = sext i32 %23 to i64
  %25 = mul i64 %24, 4
  %26 = call noalias i8* @malloc(i64 %25) #3
  %27 = bitcast i8* %26 to i32*
  %28 = load i32**, i32*** %1, align 8
  %29 = load i32, i32* %4, align 4
  %30 = sext i32 %29 to i64
  %31 = getelementptr inbounds i32*, i32** %28, i64 %30
  store i32* %27, i32** %31, align 8
  store i32 0, i32* %5, align 4
  br label %32

32:                                               ; preds = %46, %22
  %33 = load i32, i32* %5, align 4
  %34 = load i32, i32* %10, align 4
  %35 = icmp slt i32 %33, %34
  br i1 %35, label %36, label %49

36:                                               ; preds = %32
  %37 = load i32**, i32*** %1, align 8
  %38 = load i32, i32* %4, align 4
  %39 = sext i32 %38 to i64
  %40 = getelementptr inbounds i32*, i32** %37, i64 %39
  %41 = load i32*, i32** %40, align 8
  %42 = load i32, i32* %5, align 4
  %43 = sext i32 %42 to i64
  %44 = getelementptr inbounds i32, i32* %41, i64 %43
  %45 = call i32 (i8*, ...) @__isoc99_scanf(i8* getelementptr inbounds ([3 x i8], [3 x i8]* @.str.1, i64 0, i64 0), i32* %44)
  br label %46

46:                                               ; preds = %36
  %47 = load i32, i32* %5, align 4
  %48 = add nsw i32 %47, 1
  store i32 %48, i32* %5, align 4
  br label %32

49:                                               ; preds = %32
  br label %50

50:                                               ; preds = %49
  %51 = load i32, i32* %4, align 4
  %52 = add nsw i32 %51, 1
  store i32 %52, i32* %4, align 4
  br label %18

53:                                               ; preds = %18
  store i32 0, i32* %4, align 4
  br label %54

54:                                               ; preds = %140, %53
  %55 = load i32, i32* %4, align 4
  %56 = load i32, i32* %9, align 4
  %57 = icmp slt i32 %55, %56
  br i1 %57, label %58, label %143

58:                                               ; preds = %54
  store i32 0, i32* %5, align 4
  br label %59

59:                                               ; preds = %136, %58
  %60 = load i32, i32* %5, align 4
  %61 = load i32, i32* %10, align 4
  %62 = icmp slt i32 %60, %61
  br i1 %62, label %63, label %139

63:                                               ; preds = %59
  %64 = load i32**, i32*** %1, align 8
  %65 = load i32, i32* %4, align 4
  %66 = sext i32 %65 to i64
  %67 = getelementptr inbounds i32*, i32** %64, i64 %66
  %68 = load i32*, i32** %67, align 8
  %69 = load i32, i32* %5, align 4
  %70 = sext i32 %69 to i64
  %71 = getelementptr inbounds i32, i32* %68, i64 %70
  %72 = load i32, i32* %71, align 4
  store i32 %72, i32* %6, align 4
  %73 = load i32, i32* %4, align 4
  store i32 %73, i32* %2, align 4
  %74 = load i32, i32* %5, align 4
  store i32 %74, i32* %3, align 4
  store i32 0, i32* %7, align 4
  br label %75

75:                                               ; preds = %132, %63
  %76 = load i32, i32* %7, align 4
  %77 = load i32, i32* %10, align 4
  %78 = icmp slt i32 %76, %77
  br i1 %78, label %79, label %135

79:                                               ; preds = %75
  %80 = load i32**, i32*** %1, align 8
  %81 = load i32, i32* %4, align 4
  %82 = sext i32 %81 to i64
  %83 = getelementptr inbounds i32*, i32** %80, i64 %82
  %84 = load i32*, i32** %83, align 8
  %85 = load i32, i32* %7, align 4
  %86 = sext i32 %85 to i64
  %87 = getelementptr inbounds i32, i32* %84, i64 %86
  %88 = load i32, i32* %87, align 4
  %89 = load i32, i32* %6, align 4
  %90 = icmp sgt i32 %88, %89
  br i1 %90, label %91, label %92

91:                                               ; preds = %79
  br label %135

92:                                               ; preds = %79
  %93 = load i32, i32* %7, align 4
  %94 = load i32, i32* %10, align 4
  %95 = sub nsw i32 %94, 1
  %96 = icmp eq i32 %93, %95
  br i1 %96, label %97, label %131

97:                                               ; preds = %92
  store i32 0, i32* %8, align 4
  br label %98

98:                                               ; preds = %127, %97
  %99 = load i32, i32* %8, align 4
  %100 = load i32, i32* %9, align 4
  %101 = icmp slt i32 %99, %100
  br i1 %101, label %102, label %130

102:                                              ; preds = %98
  %103 = load i32**, i32*** %1, align 8
  %104 = load i32, i32* %8, align 4
  %105 = sext i32 %104 to i64
  %106 = getelementptr inbounds i32*, i32** %103, i64 %105
  %107 = load i32*, i32** %106, align 8
  %108 = load i32, i32* %5, align 4
  %109 = sext i32 %108 to i64
  %110 = getelementptr inbounds i32, i32* %107, i64 %109
  %111 = load i32, i32* %110, align 4
  %112 = load i32, i32* %6, align 4
  %113 = icmp slt i32 %111, %112
  br i1 %113, label %114, label %115

114:                                              ; preds = %102
  br label %130

115:                                              ; preds = %102
  %116 = load i32, i32* %8, align 4
  %117 = load i32, i32* %9, align 4
  %118 = sub nsw i32 %117, 1
  %119 = icmp eq i32 %116, %118
  br i1 %119, label %120, label %126

120:                                              ; preds = %115
  %121 = load i32, i32* %2, align 4
  %122 = load i32, i32* %3, align 4
  %123 = call i32 (i8*, ...) @printf(i8* getelementptr inbounds ([7 x i8], [7 x i8]* @.str.2, i64 0, i64 0), i32 %121, i32 %122)
  %124 = load i32, i32* %11, align 4
  %125 = add nsw i32 %124, 1
  store i32 %125, i32* %11, align 4
  br label %126

126:                                              ; preds = %120, %115
  br label %127

127:                                              ; preds = %126
  %128 = load i32, i32* %8, align 4
  %129 = add nsw i32 %128, 1
  store i32 %129, i32* %8, align 4
  br label %98

130:                                              ; preds = %114, %98
  br label %131

131:                                              ; preds = %130, %92
  br label %132

132:                                              ; preds = %131
  %133 = load i32, i32* %7, align 4
  %134 = add nsw i32 %133, 1
  store i32 %134, i32* %7, align 4
  br label %75

135:                                              ; preds = %91, %75
  br label %136

136:                                              ; preds = %135
  %137 = load i32, i32* %5, align 4
  %138 = add nsw i32 %137, 1
  store i32 %138, i32* %5, align 4
  br label %59

139:                                              ; preds = %59
  br label %140

140:                                              ; preds = %139
  %141 = load i32, i32* %4, align 4
  %142 = add nsw i32 %141, 1
  store i32 %142, i32* %4, align 4
  br label %54

143:                                              ; preds = %54
  %144 = load i32, i32* %11, align 4
  %145 = icmp eq i32 %144, 0
  br i1 %145, label %146, label %148

146:                                              ; preds = %143
  %147 = call i32 (i8*, ...) @printf(i8* getelementptr inbounds ([4 x i8], [4 x i8]* @.str.3, i64 0, i64 0))
  br label %148

148:                                              ; preds = %146, %143
  ret void
}

declare dso_local i32 @__isoc99_scanf(i8*, ...) #1

; Function Attrs: nounwind
declare dso_local noalias i8* @malloc(i64) #2

declare dso_local i32 @printf(i8*, ...) #1


!llvm.module.flags = !{!0}
!llvm.ident = !{!1}

!0 = !{i32 1, !"wchar_size", i32 4}
!1 = !{!"clang version 10.0.0-4ubuntu1 "}
